target datalayout = "e-m:e-p270:32:32-p271:32:32-p272:64:64-i64:64-i128:128-f80:128-n8:16:32:64-S128"
target triple = "x86_64-pc-linux-gnu"

%"class.std::__cxx11::basic_string" = type { %"struct.std::__cxx11::basic_string<char>::_Alloc_hider", i64, %union.anon }
%"struct.std::__cxx11::basic_string<char>::_Alloc_hider" = type { ptr }
%union.anon = type { i64, [8 x i8] }
%"class.Json::Value" = type { %"union.Json::Value::ValueHolder", %struct.anon, %"class.Json::Value::Comments", i64, i64 }
%"union.Json::Value::ValueHolder" = type { i64 }
%struct.anon = type { i16, [2 x i8] }
%"class.Json::Value::Comments" = type { %"class.std::unique_ptr.220" }
%"class.std::unique_ptr.220" = type { %"struct.std::__uniq_ptr_data.221" }
%"struct.std::__uniq_ptr_data.221" = type { %"class.std::__uniq_ptr_impl.222" }
%"class.std::__uniq_ptr_impl.222" = type { %"class.std::tuple.223" }
%"class.std::tuple.223" = type { %"struct.std::_Tuple_impl.224" }
%"struct.std::_Tuple_impl.224" = type { %"struct.std::_Head_base.227" }
%"struct.std::_Head_base.227" = type { ptr }
%"class.Json::FastWriter" = type <{ %"class.Json::Writer", %"class.std::__cxx11::basic_string", i8, i8, i8, [5 x i8] }>
%"class.Json::Writer" = type { ptr }

@_ZTVN4Json10FastWriterE = external unnamed_addr constant { [5 x ptr] }, align 8

; Function Attrs: mustprogress nounwind uwtable
define linkonce_odr dso_local void @_ZN4Json10FastWriterD2Ev(ptr noundef nonnull align 8 dereferenceable(43) %0) unnamed_addr #5 comdat align 2 {
  %2 = alloca ptr, align 8
  store ptr %0, ptr %2, align 8
  %3 = load ptr, ptr %2, align 8
  store ptr getelementptr inbounds ({ [5 x ptr] }, ptr @_ZTVN4Json10FastWriterE, i32 0, i32 0, i32 2), ptr %3, align 8
  %4 = getelementptr inbounds %"class.Json::FastWriter", ptr %3, i32 0, i32 1
  call void @_ZNSt7__cxx1112basic_stringIcSt11char_traitsIcESaIcEED1Ev(ptr noundef nonnull align 8 dereferenceable(32) %4) #3
  call void @_ZN4Json6WriterD2Ev(ptr noundef nonnull align 8 dereferenceable(8) %3) #3
  ret void
}

; Function Attrs: mustprogress uwtable
define dso_local void @_ZNK5cmake18ReportCapabilitiesB5cxx11Ev(ptr dead_on_unwind noalias writable sret(%"class.std::__cxx11::basic_string") align 8 %0, ptr noundef nonnull align 8 dereferenceable(2216) %1) #4 align 2 personality ptr @__gxx_personality_v0 {
  %3 = alloca ptr, align 8
  %4 = alloca ptr, align 8
  %5 = alloca i1, align 1
  %6 = alloca %"class.Json::FastWriter", align 8
  %7 = alloca ptr, align 8
  %8 = alloca i32, align 4
  %9 = alloca %"class.std::__cxx11::basic_string", align 8
  %10 = alloca %"class.Json::Value", align 8
  store ptr %0, ptr %3, align 8
  store ptr %1, ptr %4, align 8
  %11 = load ptr, ptr %4, align 8
  store i1 false, ptr %5, align 1
  call void @_ZNSt7__cxx1112basic_stringIcSt11char_traitsIcESaIcEEC1Ev(ptr noundef nonnull align 8 dereferenceable(32) %0) #3
  invoke void @_ZN4Json10FastWriterC1Ev(ptr noundef nonnull align 8 dereferenceable(43) %6)
          to label %12 unwind label %17

12:                                               ; preds = %2
  invoke void @_ZNK5cmake22ReportCapabilitiesJsonEv(ptr dead_on_unwind writable sret(%"class.Json::Value") align 8 %10, ptr noundef nonnull align 8 dereferenceable(2216) %11)
          to label %13 unwind label %21

13:                                               ; preds = %12
  invoke void @_ZN4Json10FastWriter5writeB5cxx11ERKNS_5ValueE(ptr dead_on_unwind writable sret(%"class.std::__cxx11::basic_string") align 8 %9, ptr noundef nonnull align 8 dereferenceable(43) %6, ptr noundef nonnull align 8 dereferenceable(40) %10)
          to label %14 unwind label %25

14:                                               ; preds = %13
  %15 = call noundef nonnull align 8 dereferenceable(32) ptr @_ZNSt7__cxx1112basic_stringIcSt11char_traitsIcESaIcEEaSEOS4_(ptr noundef nonnull align 8 dereferenceable(32) %0, ptr noundef nonnull align 8 dereferenceable(32) %9) #3
  call void @_ZNSt7__cxx1112basic_stringIcSt11char_traitsIcESaIcEED1Ev(ptr noundef nonnull align 8 dereferenceable(32) %9) #3
  call void @_ZN4Json5ValueD1Ev(ptr noundef nonnull align 8 dereferenceable(40) %10) #3
  store i1 true, ptr %5, align 1
  call void @_ZN4Json10FastWriterD2Ev(ptr noundef nonnull align 8 dereferenceable(43) %6) #3
  %16 = load i1, ptr %5, align 1
  br i1 %16, label %31, label %30

17:                                               ; preds = %2
  %18 = landingpad { ptr, i32 }
          cleanup
  %19 = extractvalue { ptr, i32 } %18, 0
  store ptr %19, ptr %7, align 8
  %20 = extractvalue { ptr, i32 } %18, 1
  store i32 %20, ptr %8, align 4
  br label %32

21:                                               ; preds = %12
  %22 = landingpad { ptr, i32 }
          cleanup
  %23 = extractvalue { ptr, i32 } %22, 0
  store ptr %23, ptr %7, align 8
  %24 = extractvalue { ptr, i32 } %22, 1
  store i32 %24, ptr %8, align 4
  br label %29

25:                                               ; preds = %13
  %26 = landingpad { ptr, i32 }
          cleanup
  %27 = extractvalue { ptr, i32 } %26, 0
  store ptr %27, ptr %7, align 8
  %28 = extractvalue { ptr, i32 } %26, 1
  store i32 %28, ptr %8, align 4
  call void @_ZN4Json5ValueD1Ev(ptr noundef nonnull align 8 dereferenceable(40) %10) #3
  br label %29

29:                                               ; preds = %25, %21
  call void @_ZN4Json10FastWriterD2Ev(ptr noundef nonnull align 8 dereferenceable(43) %6) #3
  br label %32

30:                                               ; preds = %14
  call void @_ZNSt7__cxx1112basic_stringIcSt11char_traitsIcESaIcEED1Ev(ptr noundef nonnull align 8 dereferenceable(32) %0) #3
  br label %31

31:                                               ; preds = %30, %14
  ret void

32:                                               ; preds = %29, %17
  call void @_ZNSt7__cxx1112basic_stringIcSt11char_traitsIcESaIcEED1Ev(ptr noundef nonnull align 8 dereferenceable(32) %0) #3
  br label %33

33:                                               ; preds = %32
  %34 = load ptr, ptr %7, align 8
  %35 = load i32, ptr %8, align 4
  %36 = insertvalue { ptr, i32 } poison, ptr %34, 0
  %37 = insertvalue { ptr, i32 } %36, i32 %35, 1
  resume { ptr, i32 } %37
}