; Function Attrs: mustprogress uwtable
define dso_local void @_ZNK5cmake18ReportCapabilitiesB5cxx11Ev(ptr dead_on_unwind noalias nonnull writable sret(%"class.std::__cxx11::basic_string") align 8 %0, ptr nocapture noundef nonnull readonly align 8 dereferenceable(2216) %1) local_unnamed_addr #3 align 2 personality ptr @__gxx_personality_v0 {
  %3 = alloca %"class.Json::FastWriter", align 8
  %4 = alloca %"class.std::__cxx11::basic_string", align 8
  %5 = alloca %"class.Json::Value", align 8
  tail call void @_ZNSt7__cxx1112basic_stringIcSt11char_traitsIcESaIcEEC1Ev(ptr noundef nonnull align 8 dereferenceable(32) %0) #30
  invoke void @_ZN4Json10FastWriterC1Ev(ptr noundef nonnull align 8 dereferenceable(43) %3)
          to label %6 unwind label %11

6:                                                ; preds = %2
  invoke void @_ZNK5cmake22ReportCapabilitiesJsonEv(ptr dead_on_unwind nonnull writable sret(%"class.Json::Value") align 8 %5, ptr noundef nonnull align 8 dereferenceable(2216) %1)
          to label %7 unwind label %13

7:                                                ; preds = %6
  invoke void @_ZN4Json10FastWriter5writeB5cxx11ERKNS_5ValueE(ptr dead_on_unwind nonnull writable sret(%"class.std::__cxx11::basic_string") align 8 %4, ptr noundef nonnull align 8 dereferenceable(43) %3, ptr noundef nonnull align 8 dereferenceable(40) %5)
          to label %8 unwind label %15

8:                                                ; preds = %7
  %9 = call noundef nonnull align 8 dereferenceable(32) ptr @_ZNSt7__cxx1112basic_stringIcSt11char_traitsIcESaIcEEaSEOS4_(ptr noundef nonnull align 8 dereferenceable(32) %0, ptr noundef nonnull align 8 dereferenceable(32) %4) #30
  call void @_ZNSt7__cxx1112basic_stringIcSt11char_traitsIcESaIcEED1Ev(ptr noundef nonnull align 8 dereferenceable(32) %4) #30
  call void @_ZN4Json5ValueD1Ev(ptr noundef nonnull align 8 dereferenceable(40) %5) #30
  store ptr getelementptr inbounds ({ [5 x ptr] }, ptr @_ZTVN4Json10FastWriterE, i64 0, i32 0, i64 2), ptr %3, align 8
  %10 = getelementptr inbounds i8, ptr %3, i64 8
  call void @_ZNSt7__cxx1112basic_stringIcSt11char_traitsIcESaIcEED1Ev(ptr noundef nonnull align 8 dereferenceable(32) %10) #30
  call void @_ZN4Json6WriterD2Ev(ptr noundef nonnull align 8 dereferenceable(8) %3) #30
  ret void

11:                                               ; preds = %2
  %12 = landingpad { ptr, i32 }
          cleanup
  br label %19

13:                                               ; preds = %6
  %14 = landingpad { ptr, i32 }
          cleanup
  br label %17

15:                                               ; preds = %7
  %16 = landingpad { ptr, i32 }
          cleanup
  call void @_ZN4Json5ValueD1Ev(ptr noundef nonnull align 8 dereferenceable(40) %5) #30
  br label %17

17:                                               ; preds = %15, %13
  %.pn = phi { ptr, i32 } [ %16, %15 ], [ %14, %13 ]
  store ptr getelementptr inbounds ({ [5 x ptr] }, ptr @_ZTVN4Json10FastWriterE, i64 0, i32 0, i64 2), ptr %3, align 8
  %18 = getelementptr inbounds i8, ptr %3, i64 8
  call void @_ZNSt7__cxx1112basic_stringIcSt11char_traitsIcESaIcEED1Ev(ptr noundef nonnull align 8 dereferenceable(32) %18) #30
  call void @_ZN4Json6WriterD2Ev(ptr noundef nonnull align 8 dereferenceable(8) %3) #30
  br label %19

19:                                               ; preds = %17, %11
  %.pn.pn = phi { ptr, i32 } [ %.pn, %17 ], [ %12, %11 ]
  call void @_ZNSt7__cxx1112basic_stringIcSt11char_traitsIcESaIcEED1Ev(ptr noundef nonnull align 8 dereferenceable(32) %0) #30
  resume { ptr, i32 } %.pn.pn
}